target datalayout = "e-m:e-p270:32:32-p271:32:32-p272:64:64-i64:64-i128:128-f80:128-n8:16:32:64-S128"
target triple = "x86_64-pc-linux-gnu"

%struct.If_DsdMan_t_ = type { ptr, i32, i32, i32, i32, ptr, ptr, %struct.Vec_Ptr_t_, %struct.Vec_Int_t_, %struct.Vec_Int_t_, ptr, ptr, ptr, [16 x ptr], [16 x ptr], [16 x ptr], [16 x ptr], i32, i32, ptr, ptr, ptr, ptr, ptr, i32, i32, i32, i32, i64, i64, i64, i64, i64 }
%struct.Vec_Ptr_t_ = type { i32, i32, ptr }
%struct.Vec_Int_t_ = type { i32, i32, ptr }
%struct.If_DsdObj_t_ = type { i32, i32, [0 x i32] }

; Function Attrs: inlinehint nounwind uwtable
define internal ptr @Vec_PtrEntry(ptr noundef %0, i32 noundef %1) #1 {
  %3 = alloca ptr, align 8
  %4 = alloca i32, align 4
  store ptr %0, ptr %3, align 8, !tbaa !22
  store i32 %1, ptr %4, align 4, !tbaa !27
  %5 = load ptr, ptr %3, align 8, !tbaa !22
  %6 = getelementptr inbounds nuw %struct.Vec_Ptr_t_, ptr %5, i32 0, i32 2
  %7 = load ptr, ptr %6, align 8, !tbaa !46
  %8 = load i32, ptr %4, align 4, !tbaa !27
  %9 = sext i32 %8 to i64
  %10 = getelementptr inbounds ptr, ptr %7, i64 %9
  %11 = load ptr, ptr %10, align 8, !tbaa !44
  ret ptr %11
}

; Function Attrs: inlinehint nounwind uwtable
define internal ptr @If_DsdVecObj(ptr noundef %0, i32 noundef %1) #1 {
  %3 = alloca ptr, align 8
  %4 = alloca i32, align 4
  store ptr %0, ptr %3, align 8, !tbaa !22
  store i32 %1, ptr %4, align 4, !tbaa !27
  %5 = load ptr, ptr %3, align 8, !tbaa !22
  %6 = load i32, ptr %4, align 4, !tbaa !27
  %7 = call ptr @Vec_PtrEntry(ptr noundef %5, i32 noundef %6)
  ret ptr %7
}

; Function Attrs: inlinehint nounwind uwtable
define internal i32 @Abc_Lit2Var(i32 noundef %0) #1 {
  %2 = alloca i32, align 4
  store i32 %0, ptr %2, align 4, !tbaa !27
  %3 = load i32, ptr %2, align 4, !tbaa !27
  %4 = ashr i32 %3, 1
  ret i32 %4
}

; Function Attrs: inlinehint nounwind uwtable
define internal i32 @If_DsdObjSuppSize(ptr noundef %0) #1 {
  %2 = alloca ptr, align 8
  store ptr %0, ptr %2, align 8, !tbaa !40
  %3 = load ptr, ptr %2, align 8, !tbaa !40
  %4 = getelementptr inbounds nuw %struct.If_DsdObj_t_, ptr %3, i32 0, i32 1
  %5 = load i32, ptr %4, align 4
  %6 = lshr i32 %5, 3
  %7 = and i32 %6, 31
  ret i32 %7
}

; Function Attrs: inlinehint nounwind uwtable
define internal ptr @If_DsdObjFanin(ptr noundef %0, ptr noundef %1, i32 noundef %2) #1 {
  %4 = alloca ptr, align 8
  %5 = alloca ptr, align 8
  %6 = alloca i32, align 4
  store ptr %0, ptr %4, align 8, !tbaa !22
  store ptr %1, ptr %5, align 8, !tbaa !40
  store i32 %2, ptr %6, align 4, !tbaa !27
  %7 = load ptr, ptr %4, align 8, !tbaa !22
  %8 = load ptr, ptr %5, align 8, !tbaa !40
  %9 = getelementptr inbounds nuw %struct.If_DsdObj_t_, ptr %8, i32 0, i32 2
  %10 = load i32, ptr %6, align 4, !tbaa !27
  %11 = sext i32 %10 to i64
  %12 = getelementptr inbounds [0 x i32], ptr %9, i64 0, i64 %11
  %13 = load i32, ptr %12, align 4, !tbaa !27
  %14 = call i32 @Abc_Lit2Var(i32 noundef %13)
  %15 = call ptr @If_DsdVecObj(ptr noundef %7, i32 noundef %14)
  ret ptr %15
}

; Function Attrs: inlinehint nounwind uwtable
define internal i32 @If_DsdObjFaninNum(ptr noundef %0) #1 {
  %2 = alloca ptr, align 8
  store ptr %0, ptr %2, align 8, !tbaa !40
  %3 = load ptr, ptr %2, align 8, !tbaa !40
  %4 = getelementptr inbounds nuw %struct.If_DsdObj_t_, ptr %3, i32 0, i32 1
  %5 = load i32, ptr %4, align 4
  %6 = lshr i32 %5, 27
  ret i32 %6
}

; Function Attrs: nounwind uwtable
define void @If_DsdManGetSuppSizes(ptr noundef %0, ptr noundef %1, ptr noundef %2) #0 {
  %4 = alloca ptr, align 8
  %5 = alloca ptr, align 8
  %6 = alloca ptr, align 8
  %7 = alloca ptr, align 8
  %8 = alloca i32, align 4
  store ptr %0, ptr %4, align 8, !tbaa !3
  store ptr %1, ptr %5, align 8, !tbaa !40
  store ptr %2, ptr %6, align 8, !tbaa !60
  call void @llvm.lifetime.start.p0(i64 8, ptr %7) #15
  call void @llvm.lifetime.start.p0(i64 4, ptr %8) #15
  store i32 0, ptr %8, align 4, !tbaa !27
  br label %9

9:                                                ; preds = %30, %3
  %10 = load i32, ptr %8, align 4, !tbaa !27
  %11 = load ptr, ptr %5, align 8, !tbaa !40
  %12 = call i32 @If_DsdObjFaninNum(ptr noundef %11)
  %13 = icmp slt i32 %10, %12
  br i1 %13, label %14, label %21

14:                                               ; preds = %9
  %15 = load ptr, ptr %4, align 8, !tbaa !3
  %16 = getelementptr inbounds nuw %struct.If_DsdMan_t_, ptr %15, i32 0, i32 7
  %17 = load ptr, ptr %5, align 8, !tbaa !40
  %18 = load i32, ptr %8, align 4, !tbaa !27
  %19 = call ptr @If_DsdObjFanin(ptr noundef %16, ptr noundef %17, i32 noundef %18)
  store ptr %19, ptr %7, align 8, !tbaa !40
  %20 = icmp ne ptr %19, null
  br label %21

21:                                               ; preds = %14, %9
  %22 = phi i1 [ false, %9 ], [ %20, %14 ]
  br i1 %22, label %23, label %33

23:                                               ; preds = %21
  %24 = load ptr, ptr %7, align 8, !tbaa !40
  %25 = call i32 @If_DsdObjSuppSize(ptr noundef %24)
  %26 = load ptr, ptr %6, align 8, !tbaa !60
  %27 = load i32, ptr %8, align 4, !tbaa !27
  %28 = sext i32 %27 to i64
  %29 = getelementptr inbounds i32, ptr %26, i64 %28
  store i32 %25, ptr %29, align 4, !tbaa !27
  br label %30

30:                                               ; preds = %23
  %31 = load i32, ptr %8, align 4, !tbaa !27
  %32 = add nsw i32 %31, 1
  store i32 %32, ptr %8, align 4, !tbaa !27
  br label %9, !llvm.loop !233

33:                                               ; preds = %21
  call void @llvm.lifetime.end.p0(i64 4, ptr %8) #15
  call void @llvm.lifetime.end.p0(i64 8, ptr %7) #15
  ret void
}