; Function Attrs: nofree norecurse nosync nounwind memory(read, argmem: readwrite, inaccessiblemem: none) uwtable
define void @If_DsdManGetSuppSizes(ptr noundef readonly captures(none) %0, ptr noundef readonly captures(none) %1, ptr noundef writeonly captures(none) %2) local_unnamed_addr #23 {
  %4 = getelementptr i8, ptr %1, i64 4
  %.val11 = load i32, ptr %4, align 4
  %.not14 = icmp ult i32 %.val11, 134217728
  br i1 %.not14, label %.critedge, label %.lr.ph

.lr.ph:                                           ; preds = %3
  %5 = getelementptr i8, ptr %0, i64 48
  %.val10 = load ptr, ptr %5, align 8, !tbaa !23
  %6 = getelementptr inbounds nuw i8, ptr %1, i64 8
  br label %7

7:                                                ; preds = %.lr.ph, %14
  %indvars.iv = phi i64 [ 0, %.lr.ph ], [ %indvars.iv.next, %14 ]
  %8 = getelementptr inbounds nuw [0 x i32], ptr %6, i64 0, i64 %indvars.iv
  %9 = load i32, ptr %8, align 4, !tbaa !40
  %10 = ashr i32 %9, 1
  %11 = sext i32 %10 to i64
  %12 = getelementptr inbounds ptr, ptr %.val10, i64 %11
  %13 = load ptr, ptr %12, align 8, !tbaa !24
  %.not = icmp eq ptr %13, null
  br i1 %.not, label %.critedge, label %14

14:                                               ; preds = %7
  %15 = getelementptr i8, ptr %13, i64 4
  %.val9 = load i32, ptr %15, align 4
  %16 = lshr i32 %.val9, 3
  %17 = and i32 %16, 31
  %18 = getelementptr inbounds nuw i32, ptr %2, i64 %indvars.iv
  store i32 %17, ptr %18, align 4, !tbaa !40
  %indvars.iv.next = add nuw nsw i64 %indvars.iv, 1
  %.val = load i32, ptr %4, align 4
  %19 = lshr i32 %.val, 27
  %20 = zext nneg i32 %19 to i64
  %21 = icmp samesign ult i64 %indvars.iv.next, %20
  br i1 %21, label %7, label %.critedge, !llvm.loop !220

.critedge:                                        ; preds = %7, %14, %3
  ret void
}